; Function Attrs: mustprogress nounwind uwtable
define noundef ptr @_ZNK19OpenColorIO_v2_4dev17ProcessorMetadata7getFileEi(ptr nocapture noundef nonnull readonly align 8 dereferenceable(8) %this, i32 noundef %index) local_unnamed_addr #4 align 2 personality ptr @__gxx_personality_v0 {
entry:
  %cmp = icmp slt i32 %index, 0
  br i1 %cmp, label %return, label %lor.lhs.false

lor.lhs.false:                                    ; preds = %entry
  %0 = load ptr, ptr %this, align 8
  %_M_node_count.i.i = getelementptr inbounds i8, ptr %0, i64 40
  %1 = load i64, ptr %_M_node_count.i.i, align 8
  %conv = trunc i64 %1 to i32
  %cmp3.not = icmp sgt i32 %conv, %index
  br i1 %cmp3.not, label %if.end, label %return

if.end:                                           ; preds = %lor.lhs.false
  %_M_left.i.i = getelementptr inbounds i8, ptr %0, i64 24
  %2 = load ptr, ptr %_M_left.i.i, align 8
  %cmp.i.i.not = icmp eq i32 %index, 0
  br i1 %cmp.i.i.not, label %_ZSt7advanceISt23_Rb_tree_const_iteratorINSt7__cxx1112basic_stringIcSt11char_traitsIcESaIcEEEEiEvRT_T0_.exit, label %while.body.i.i.preheader

while.body.i.i.preheader:                         ; preds = %if.end
  %conv.i = zext nneg i32 %index to i64
  br label %while.body.i.i

while.body.i.i:                                   ; preds = %while.body.i.i.preheader, %while.body.i.i
  %__n.addr.013.i.i = phi i64 [ %dec.i.i, %while.body.i.i ], [ %conv.i, %while.body.i.i.preheader ]
  %call.i1112.i.i = phi ptr [ %call.i.i.i, %while.body.i.i ], [ %2, %while.body.i.i.preheader ]
  %dec.i.i = add nsw i64 %__n.addr.013.i.i, -1
  %call.i.i.i = tail call noundef ptr @_ZSt18_Rb_tree_incrementPKSt18_Rb_tree_node_base(ptr noundef %call.i1112.i.i) #26
  %tobool.not.i.i = icmp eq i64 %dec.i.i, 0
  br i1 %tobool.not.i.i, label %_ZSt7advanceISt23_Rb_tree_const_iteratorINSt7__cxx1112basic_stringIcSt11char_traitsIcESaIcEEEEiEvRT_T0_.exit, label %while.body.i.i, !llvm.loop !6

_ZSt7advanceISt23_Rb_tree_const_iteratorINSt7__cxx1112basic_stringIcSt11char_traitsIcESaIcEEEEiEvRT_T0_.exit: ; preds = %while.body.i.i, %if.end
  %iter.sroa.0.0 = phi ptr [ %2, %if.end ], [ %call.i.i.i, %while.body.i.i ]
  %_M_storage.i.i = getelementptr inbounds i8, ptr %iter.sroa.0.0, i64 32
  %call8 = tail call noundef ptr @_ZNKSt7__cxx1112basic_stringIcSt11char_traitsIcESaIcEE5c_strEv(ptr noundef nonnull align 8 dereferenceable(32) %_M_storage.i.i) #22
  br label %return

return:                                           ; preds = %entry, %lor.lhs.false, %_ZSt7advanceISt23_Rb_tree_const_iteratorINSt7__cxx1112basic_stringIcSt11char_traitsIcESaIcEEEEiEvRT_T0_.exit
  %retval.0 = phi ptr [ %call8, %_ZSt7advanceISt23_Rb_tree_const_iteratorINSt7__cxx1112basic_stringIcSt11char_traitsIcESaIcEEEEiEvRT_T0_.exit ], [ @.str, %lor.lhs.false ], [ @.str, %entry ]
  ret ptr %retval.0
}